target datalayout = "e-m:e-p270:32:32-p271:32:32-p272:64:64-i64:64-i128:128-f80:128-n8:16:32:64-S128"
target triple = "x86_64-pc-linux-gnu"

%struct.Vmem = type { ptr, i64, i64 }
%struct.ParseContext_ = type { %struct.TokenData, i32, %union.SourceSpan, %union.SourceSpan, ptr, %struct.Lexer }
%struct.TokenData = type { ptr, i64, %union.anon.86 }
%union.anon.86 = type { %struct.anon.89 }
%struct.anon.89 = type { %struct.Int128_, i8 }
%struct.Int128_ = type { i64, i64 }
%union.SourceSpan = type { i64 }
%struct.Lexer = type { ptr, ptr, ptr, ptr, i32, i32, ptr, ptr, ptr, %struct.TokenData, %union.SourceSpan, i32, i32 }
%struct.Ast_ = type { %union.SourceSpan, i32, i8, %union.anon.62 }
%union.anon.62 = type { %struct.AstDocDirective_ }
%struct.AstDocDirective_ = type { i8, %union.anon.65 }
%union.anon.65 = type { %struct.anon.66 }
%struct.anon.66 = type { ptr, %union.SourceSpan, i8 }
%struct.Expr_ = type { ptr, %union.SourceSpan, i16, %union.anon.30 }
%union.anon.30 = type { %struct.ExprAnySwitch }
%struct.ExprAnySwitch = type { i8, %union.anon.32 }
%union.anon.32 = type { %struct.anon.33 }
%struct.anon.33 = type { ptr, %union.SourceSpan, ptr }
%struct.Decl_ = type { ptr, ptr, %union.SourceSpan, i64, %union.anon, i32, %union.anon.1, i64, ptr, ptr, ptr, %union.anon.2 }
%union.anon = type { ptr }
%union.anon.1 = type { i16 }
%union.anon.2 = type { %struct.FuncDecl }
%struct.FuncDecl = type { i32, [4 x i8], %struct.Signature_, i32, i32, %union.anon.9 }
%struct.Signature_ = type <{ %struct.CalleeAttributes, i16, i8, i32, i32, [4 x i8], ptr }>
%struct.CalleeAttributes = type { i8 }
%union.anon.9 = type { %struct.anon.10 }
%struct.anon.10 = type { i16, %union.anon.11 }
%union.anon.11 = type { ptr }
%struct.FlowCommon = type { i32, i8 }
%struct.anon.0 = type { i16, i8, i8, i32 }
%struct.AstForStmt = type { %struct.FlowCommon, %union.anon.71 }
%union.anon.71 = type { %struct.anon.73 }
%struct.anon.73 = type { ptr, ptr }
%struct.anon.72 = type { i32, i32, i32, i32 }
%struct.LabelDecl = type { i32, i8, %union.anon.13, ptr, i32, i32 }
%union.anon.13 = type { ptr }

@poisoned_ast = external global ptr, align 8
@.str.12 = private unnamed_addr constant [15 x i8] c"Expected '%s'.\00", align 1
@expr_arena = external global %struct.Vmem, align 8
@ast_arena = external global %struct.Vmem, align 8
@.str.19 = private unnamed_addr constant [55 x i8] c"The name must be followed by a ':', did you forget it?\00", align 1
@poisoned_decl = external global ptr, align 8
@decl_arena = external global %struct.Vmem, align 8
@.str.20 = private unnamed_addr constant [88 x i8] c"A single statement after 'while' must be placed on the same line, or be enclosed in {}.\00", align 1

; Function Attrs: nounwind uwtable
define internal i32 @astid(ptr noundef %0) #0 {
  %2 = alloca ptr, align 8
  store ptr %0, ptr %2, align 8
  %3 = load ptr, ptr %2, align 8
  %4 = load ptr, ptr @ast_arena, align 8
  %5 = ptrtoint ptr %3 to i64
  %6 = ptrtoint ptr %4 to i64
  %7 = sub i64 %5, %6
  %8 = sdiv exact i64 %7, 48
  %9 = trunc i64 %8 to i32
  ret i32 %9
}

; Function Attrs: nounwind uwtable
define internal i32 @exprid(ptr noundef %0) #0 {
  %2 = alloca ptr, align 8
  store ptr %0, ptr %2, align 8
  %3 = load ptr, ptr %2, align 8
  %4 = load ptr, ptr @expr_arena, align 8
  %5 = ptrtoint ptr %3 to i64
  %6 = ptrtoint ptr %4 to i64
  %7 = sub i64 %5, %6
  %8 = sdiv exact i64 %7, 56
  %9 = trunc i64 %8 to i32
  ret i32 %9
}

; Function Attrs: nounwind uwtable
define internal i32 @declid(ptr noundef %0) #0 {
  %2 = alloca ptr, align 8
  store ptr %0, ptr %2, align 8
  %3 = load ptr, ptr %2, align 8
  %4 = load ptr, ptr @decl_arena, align 8
  %5 = ptrtoint ptr %3 to i64
  %6 = ptrtoint ptr %4 to i64
  %7 = sub i64 %5, %6
  %8 = sdiv exact i64 %7, 136
  %9 = trunc i64 %8 to i32
  ret i32 %9
}

; Function Attrs: nounwind uwtable
define internal ptr @parse_optional_label(ptr noundef %0, ptr noundef %1) #0 {
  %3 = alloca ptr, align 8
  %4 = alloca ptr, align 8
  %5 = alloca i32, align 4
  %6 = alloca ptr, align 8
  %7 = alloca i32, align 4
  %8 = alloca ptr, align 8
  %9 = alloca ptr, align 8
  %10 = alloca ptr, align 8
  %11 = alloca ptr, align 8
  store ptr %0, ptr %9, align 8
  store ptr %1, ptr %10, align 8
  %12 = load ptr, ptr %9, align 8
  store ptr %12, ptr %4, align 8
  store i32 65, ptr %5, align 4
  %13 = load ptr, ptr %4, align 8
  %14 = getelementptr inbounds %struct.ParseContext_, ptr %13, i32 0, i32 1
  %15 = load i32, ptr %14, align 8
  %16 = load i32, ptr %5, align 4
  %17 = icmp eq i32 %15, %16
  br i1 %17, label %19, label %18

18:                                               ; preds = %2
  store ptr null, ptr %8, align 8
  br label %46

19:                                               ; preds = %2
  %20 = load ptr, ptr %9, align 8
  store ptr %20, ptr %3, align 8
  %21 = load ptr, ptr %3, align 8
  %22 = getelementptr inbounds %struct.TokenData, ptr %21, i32 0, i32 2
  %23 = load ptr, ptr %22, align 8
  %24 = load ptr, ptr %9, align 8
  %25 = getelementptr inbounds %struct.ParseContext_, ptr %24, i32 0, i32 2
  %26 = getelementptr inbounds %union.SourceSpan, ptr %25, i32 0, i32 0
  %27 = load i64, ptr %26, align 8
  %28 = call ptr @decl_new(i32 noundef 20, ptr noundef %23, i64 %27)
  store ptr %28, ptr %11, align 8
  %29 = load ptr, ptr %10, align 8
  %30 = call i32 @astid(ptr noundef %29)
  %31 = load ptr, ptr %11, align 8
  %32 = getelementptr inbounds %struct.Decl_, ptr %31, i32 0, i32 11
  %33 = getelementptr inbounds %struct.LabelDecl, ptr %32, i32 0, i32 5
  store i32 %30, ptr %33, align 4
  %34 = load ptr, ptr %9, align 8
  store ptr %34, ptr %6, align 8
  store i32 65, ptr %7, align 4
  %35 = load ptr, ptr %6, align 8
  call void @advance(ptr noundef %35) #4
  %36 = load ptr, ptr %9, align 8
  %37 = call zeroext i1 @try_consume(ptr noundef %36, i32 noundef 7)
  br i1 %37, label %44, label %38

38:                                               ; preds = %19
  %39 = load ptr, ptr %11, align 8
  %40 = getelementptr inbounds %struct.Decl_, ptr %39, i32 0, i32 2
  %41 = getelementptr inbounds %union.SourceSpan, ptr %40, i32 0, i32 0
  %42 = load i64, ptr %41, align 8
  call void (i64, ptr, ...) @sema_error_at(i64 %42, ptr noundef @.str.19)
  %43 = load ptr, ptr @poisoned_decl, align 8
  store ptr %43, ptr %8, align 8
  br label %46

44:                                               ; preds = %19
  %45 = load ptr, ptr %11, align 8
  store ptr %45, ptr %8, align 8
  br label %46

46:                                               ; preds = %44, %38, %18
  %47 = load ptr, ptr %8, align 8
  ret ptr %47
}

; Function Attrs: nounwind uwtable
define internal ptr @ast_calloc() #0 {
  %1 = call ptr @vmem_alloc(ptr noundef @ast_arena, i64 noundef 48)
  ret ptr %1
}

; Function Attrs: nounwind uwtable
define internal ptr @parse_while_stmt(ptr noundef %0) #0 {
  %2 = alloca ptr, align 8
  %3 = alloca ptr, align 8
  %4 = alloca i32, align 4
  %5 = alloca ptr, align 8
  %6 = alloca i32, align 4
  %7 = alloca %union.SourceSpan, align 8
  %8 = alloca i32, align 4
  %9 = alloca ptr, align 8
  %10 = alloca ptr, align 8
  %11 = alloca ptr, align 8
  %12 = alloca i32, align 4
  %13 = alloca ptr, align 8
  %14 = alloca i1, align 1
  %15 = alloca ptr, align 8
  %16 = alloca i32, align 4
  %17 = alloca i1, align 1
  %18 = alloca ptr, align 8
  %19 = alloca i32, align 4
  %20 = alloca ptr, align 8
  %21 = alloca ptr, align 8
  %22 = alloca ptr, align 8
  %23 = alloca ptr, align 8
  %24 = alloca ptr, align 8
  %25 = alloca i32, align 4
  %26 = alloca ptr, align 8
  %27 = alloca ptr, align 8
  store ptr %0, ptr %21, align 8
  %28 = load ptr, ptr %21, align 8
  %29 = getelementptr inbounds %struct.ParseContext_, ptr %28, i32 0, i32 2
  %30 = getelementptr inbounds %union.SourceSpan, ptr %29, i32 0, i32 0
  %31 = load i64, ptr %30, align 8
  store i64 %31, ptr %7, align 8
  store i32 20, ptr %8, align 4
  %32 = call ptr @ast_calloc()
  store ptr %32, ptr %9, align 8
  %33 = load ptr, ptr %9, align 8
  call void @llvm.memcpy.p0.p0.i64(ptr align 8 %33, ptr align 8 %7, i64 8, i1 false)
  %34 = load i32, ptr %8, align 4
  %35 = load ptr, ptr %9, align 8
  %36 = getelementptr inbounds %struct.Ast_, ptr %35, i32 0, i32 2
  %37 = trunc i32 %34 to i8
  store i8 %37, ptr %36, align 4
  %38 = load ptr, ptr %9, align 8
  store ptr %38, ptr %22, align 8
  %39 = load ptr, ptr %21, align 8
  store ptr %39, ptr %11, align 8
  store i32 144, ptr %12, align 4
  %40 = load ptr, ptr %11, align 8
  call void @advance(ptr noundef %40) #4
  %41 = load ptr, ptr %21, align 8
  %42 = load ptr, ptr %22, align 8
  %43 = call ptr @parse_optional_label(ptr noundef %41, ptr noundef %42)
  store ptr %43, ptr %23, align 8
  %44 = load ptr, ptr %23, align 8
  store ptr %44, ptr %2, align 8
  %45 = load ptr, ptr %2, align 8
  %46 = icmp ne ptr %45, null
  br i1 %46, label %47, label %54

47:                                               ; preds = %1
  %48 = load ptr, ptr %2, align 8
  %49 = getelementptr inbounds %struct.Decl_, ptr %48, i32 0, i32 3
  %50 = load i64, ptr %49, align 8
  %51 = and i64 %50, 127
  %52 = trunc i64 %51 to i32
  %53 = icmp ne i32 %52, 0
  br label %54

54:                                               ; preds = %47, %1
  %55 = phi i1 [ true, %1 ], [ %53, %47 ]
  br i1 %55, label %58, label %56

56:                                               ; preds = %54
  %57 = load ptr, ptr @poisoned_ast, align 8
  store ptr %57, ptr %20, align 8
  br label %187

58:                                               ; preds = %54
  %59 = load ptr, ptr %23, align 8
  %60 = icmp ne ptr %59, null
  br i1 %60, label %61, label %64

61:                                               ; preds = %58
  %62 = load ptr, ptr %23, align 8
  %63 = call i32 @declid(ptr noundef %62)
  br label %65

64:                                               ; preds = %58
  br label %65

65:                                               ; preds = %64, %61
  %66 = phi i32 [ %63, %61 ], [ 0, %64 ]
  %67 = load ptr, ptr %22, align 8
  %68 = getelementptr inbounds %struct.Ast_, ptr %67, i32 0, i32 3
  %69 = getelementptr inbounds %struct.AstForStmt, ptr %68, i32 0, i32 0
  %70 = getelementptr inbounds %struct.FlowCommon, ptr %69, i32 0, i32 0
  store i32 %66, ptr %70, align 8
  br label %71

71:                                               ; preds = %65
  %72 = load ptr, ptr %21, align 8
  store ptr %72, ptr %15, align 8
  store i32 19, ptr %16, align 4
  %73 = load ptr, ptr %15, align 8
  %74 = load i32, ptr %16, align 4
  store ptr %73, ptr %5, align 8
  store i32 %74, ptr %6, align 4
  %75 = load ptr, ptr %5, align 8
  %76 = getelementptr inbounds %struct.ParseContext_, ptr %75, i32 0, i32 1
  %77 = load i32, ptr %76, align 8
  %78 = load i32, ptr %6, align 4
  %79 = icmp eq i32 %77, %78
  br i1 %79, label %80, label %81

80:                                               ; preds = %71
  store i1 true, ptr %14, align 1
  br label %87

81:                                               ; preds = %71
  %82 = load ptr, ptr %15, align 8
  %83 = getelementptr inbounds %struct.ParseContext_, ptr %82, i32 0, i32 2
  %84 = load i32, ptr %16, align 4
  %85 = call ptr @token_type_to_string(i32 noundef %84) #4
  %86 = load i64, ptr %83, align 8
  call void (i64, ptr, ...) @sema_error_at(i64 %86, ptr noundef @.str.12, ptr noundef %85) #4
  store i1 false, ptr %14, align 1
  br label %87

87:                                               ; preds = %81, %80
  %88 = load i1, ptr %14, align 1
  br i1 %88, label %91, label %89

89:                                               ; preds = %87
  %90 = load ptr, ptr @poisoned_ast, align 8
  store ptr %90, ptr %20, align 8
  br label %187

91:                                               ; preds = %87
  %92 = load ptr, ptr %21, align 8
  call void @advance(ptr noundef %92)
  br label %93

93:                                               ; preds = %91
  %94 = load ptr, ptr %21, align 8
  %95 = call ptr @parse_cond(ptr noundef %94)
  store ptr %95, ptr %24, align 8
  %96 = load ptr, ptr %24, align 8
  store ptr %96, ptr %10, align 8
  %97 = load ptr, ptr %10, align 8
  %98 = icmp eq ptr %97, null
  br i1 %98, label %106, label %99

99:                                               ; preds = %93
  %100 = load ptr, ptr %10, align 8
  %101 = getelementptr inbounds %struct.Expr_, ptr %100, i32 0, i32 2
  %102 = load i16, ptr %101, align 8
  %103 = and i16 %102, 255
  %104 = zext i16 %103 to i32
  %105 = icmp ne i32 %104, 0
  br label %106

106:                                              ; preds = %99, %93
  %107 = phi i1 [ true, %93 ], [ %105, %99 ]
  br i1 %107, label %110, label %108

108:                                              ; preds = %106
  %109 = load ptr, ptr @poisoned_ast, align 8
  store ptr %109, ptr %20, align 8
  br label %187

110:                                              ; preds = %106
  %111 = load ptr, ptr %24, align 8
  %112 = call i32 @exprid(ptr noundef %111)
  %113 = load ptr, ptr %22, align 8
  %114 = getelementptr inbounds %struct.Ast_, ptr %113, i32 0, i32 3
  %115 = getelementptr inbounds %struct.AstForStmt, ptr %114, i32 0, i32 1
  %116 = getelementptr inbounds %struct.anon.72, ptr %115, i32 0, i32 0
  store i32 %112, ptr %116, align 8
  br label %117

117:                                              ; preds = %110
  %118 = load ptr, ptr %21, align 8
  store ptr %118, ptr %18, align 8
  store i32 26, ptr %19, align 4
  %119 = load ptr, ptr %18, align 8
  %120 = load i32, ptr %19, align 4
  store ptr %119, ptr %3, align 8
  store i32 %120, ptr %4, align 4
  %121 = load ptr, ptr %3, align 8
  %122 = getelementptr inbounds %struct.ParseContext_, ptr %121, i32 0, i32 1
  %123 = load i32, ptr %122, align 8
  %124 = load i32, ptr %4, align 4
  %125 = icmp eq i32 %123, %124
  br i1 %125, label %126, label %127

126:                                              ; preds = %117
  store i1 true, ptr %17, align 1
  br label %133

127:                                              ; preds = %117
  %128 = load ptr, ptr %18, align 8
  %129 = getelementptr inbounds %struct.ParseContext_, ptr %128, i32 0, i32 2
  %130 = load i32, ptr %19, align 4
  %131 = call ptr @token_type_to_string(i32 noundef %130) #4
  %132 = load i64, ptr %129, align 8
  call void (i64, ptr, ...) @sema_error_at(i64 %132, ptr noundef @.str.12, ptr noundef %131) #4
  store i1 false, ptr %17, align 1
  br label %133

133:                                              ; preds = %127, %126
  %134 = load i1, ptr %17, align 1
  br i1 %134, label %137, label %135

135:                                              ; preds = %133
  %136 = load ptr, ptr @poisoned_ast, align 8
  store ptr %136, ptr %20, align 8
  br label %187

137:                                              ; preds = %133
  %138 = load ptr, ptr %21, align 8
  call void @advance(ptr noundef %138)
  br label %139

139:                                              ; preds = %137
  %140 = load ptr, ptr %21, align 8
  %141 = getelementptr inbounds %struct.ParseContext_, ptr %140, i32 0, i32 3
  %142 = getelementptr inbounds %struct.anon.0, ptr %141, i32 0, i32 3
  %143 = load i32, ptr %142, align 4
  store i32 %143, ptr %25, align 4
  %144 = load ptr, ptr %21, align 8
  %145 = call ptr @parse_stmt(ptr noundef %144)
  store ptr %145, ptr %26, align 8
  %146 = load ptr, ptr %26, align 8
  store ptr %146, ptr %13, align 8
  %147 = load ptr, ptr %13, align 8
  %148 = icmp eq ptr %147, null
  br i1 %148, label %155, label %149

149:                                              ; preds = %139
  %150 = load ptr, ptr %13, align 8
  %151 = getelementptr inbounds %struct.Ast_, ptr %150, i32 0, i32 2
  %152 = load i8, ptr %151, align 4
  %153 = zext i8 %152 to i32
  %154 = icmp ne i32 %153, 0
  br label %155

155:                                              ; preds = %149, %139
  %156 = phi i1 [ true, %139 ], [ %154, %149 ]
  br i1 %156, label %159, label %157

157:                                              ; preds = %155
  %158 = load ptr, ptr @poisoned_ast, align 8
  store ptr %158, ptr %20, align 8
  br label %187

159:                                              ; preds = %155
  %160 = load ptr, ptr %26, align 8
  store ptr %160, ptr %27, align 8
  %161 = load ptr, ptr %27, align 8
  %162 = getelementptr inbounds %struct.Ast_, ptr %161, i32 0, i32 2
  %163 = load i8, ptr %162, align 4
  %164 = zext i8 %163 to i32
  %165 = icmp ne i32 %164, 6
  br i1 %165, label %166, label %179

166:                                              ; preds = %159
  %167 = load i32, ptr %25, align 4
  %168 = load ptr, ptr %21, align 8
  %169 = getelementptr inbounds %struct.ParseContext_, ptr %168, i32 0, i32 3
  %170 = getelementptr inbounds %struct.anon.0, ptr %169, i32 0, i32 3
  %171 = load i32, ptr %170, align 4
  %172 = icmp ne i32 %167, %171
  br i1 %172, label %173, label %179

173:                                              ; preds = %166
  %174 = load ptr, ptr %27, align 8
  %175 = getelementptr inbounds %struct.Ast_, ptr %174, i32 0, i32 0
  %176 = getelementptr inbounds %union.SourceSpan, ptr %175, i32 0, i32 0
  %177 = load i64, ptr %176, align 8
  call void (i64, ptr, ...) @sema_error_at(i64 %177, ptr noundef @.str.20)
  %178 = load ptr, ptr @poisoned_ast, align 8
  store ptr %178, ptr %20, align 8
  br label %187

179:                                              ; preds = %166, %159
  %180 = load ptr, ptr %27, align 8
  %181 = call i32 @astid(ptr noundef %180)
  %182 = load ptr, ptr %22, align 8
  %183 = getelementptr inbounds %struct.Ast_, ptr %182, i32 0, i32 3
  %184 = getelementptr inbounds %struct.AstForStmt, ptr %183, i32 0, i32 1
  %185 = getelementptr inbounds %struct.anon.72, ptr %184, i32 0, i32 3
  store i32 %181, ptr %185, align 4
  %186 = load ptr, ptr %22, align 8
  store ptr %186, ptr %20, align 8
  br label %187

187:                                              ; preds = %179, %173, %157, %135, %108, %89, %56
  %188 = load ptr, ptr %20, align 8
  ret ptr %188
}