; Function Attrs: nounwind uwtable
define internal fastcc ptr @parse_while_stmt(ptr noundef %0) unnamed_addr #0 {
  %2 = getelementptr inbounds i8, ptr %0, i64 48
  %3 = load i64, ptr %2, align 8
  %4 = tail call ptr @vmem_alloc(ptr noundef nonnull @ast_arena, i64 noundef 48) #5
  store i64 %3, ptr %4, align 8
  %5 = getelementptr inbounds i8, ptr %4, i64 12
  store i8 20, ptr %5, align 4
  tail call void @advance(ptr noundef %0) #5
  %6 = getelementptr inbounds i8, ptr %0, i64 40
  %7 = load i32, ptr %6, align 8
  %8 = icmp eq i32 %7, 65
  br i1 %8, label %9, label %.critedge67

9:                                                ; preds = %1
  %10 = getelementptr inbounds i8, ptr %0, i64 16
  %11 = load ptr, ptr %10, align 8
  %12 = load i64, ptr %2, align 8
  %13 = tail call ptr @decl_new(i32 noundef 20, ptr noundef %11, i64 %12) #5
  %14 = load ptr, ptr @ast_arena, align 8
  %15 = ptrtoint ptr %4 to i64
  %16 = ptrtoint ptr %14 to i64
  %17 = sub i64 %15, %16
  %18 = sdiv exact i64 %17, 48
  %19 = trunc i64 %18 to i32
  %20 = getelementptr inbounds i8, ptr %13, i64 108
  store i32 %19, ptr %20, align 4
  tail call void @advance(ptr noundef nonnull %0) #5
  %21 = tail call zeroext i1 @try_consume(ptr noundef nonnull %0, i32 noundef 7) #5
  br i1 %21, label %parse_optional_label.exit.thread74, label %parse_optional_label.exit

parse_optional_label.exit:                        ; preds = %9
  %22 = getelementptr inbounds i8, ptr %13, i64 16
  %23 = load i64, ptr %22, align 8
  tail call void (i64, ptr, ...) @sema_error_at(i64 %23, ptr noundef nonnull @.str.19) #5
  %24 = load ptr, ptr @poisoned_decl, align 8
  %.not = icmp eq ptr %24, null
  br i1 %.not, label %.critedge67, label %parse_optional_label.exit.thread74

parse_optional_label.exit.thread74:               ; preds = %9, %parse_optional_label.exit
  %.0.i77 = phi ptr [ %24, %parse_optional_label.exit ], [ %13, %9 ]
  %25 = getelementptr inbounds i8, ptr %.0.i77, i64 24
  %26 = load i64, ptr %25, align 8
  %27 = and i64 %26, 127
  %.not62 = icmp eq i64 %27, 0
  br i1 %.not62, label %28, label %.critedge

28:                                               ; preds = %parse_optional_label.exit.thread74
  %29 = load ptr, ptr @poisoned_ast, align 8
  br label %85

.critedge:                                        ; preds = %parse_optional_label.exit.thread74
  %30 = load ptr, ptr @decl_arena, align 8
  %31 = ptrtoint ptr %.0.i77 to i64
  %32 = ptrtoint ptr %30 to i64
  %33 = sub i64 %31, %32
  %34 = sdiv exact i64 %33, 136
  %35 = trunc i64 %34 to i32
  br label %.critedge67

.critedge67:                                      ; preds = %1, %parse_optional_label.exit, %.critedge
  %36 = phi i32 [ %35, %.critedge ], [ 0, %parse_optional_label.exit ], [ 0, %1 ]
  %37 = getelementptr inbounds i8, ptr %4, i64 16
  store i32 %36, ptr %37, align 8
  %38 = load i32, ptr %6, align 8
  %39 = icmp eq i32 %38, 19
  br i1 %39, label %.critedge69, label %40

40:                                               ; preds = %.critedge67
  %41 = tail call ptr @token_type_to_string(i32 noundef 19) #5
  %42 = load i64, ptr %2, align 8
  tail call void (i64, ptr, ...) @sema_error_at(i64 %42, ptr noundef nonnull @.str.12, ptr noundef %41) #5
  %43 = load ptr, ptr @poisoned_ast, align 8
  br label %85

.critedge69:                                      ; preds = %.critedge67
  tail call void @advance(ptr noundef nonnull %0) #5
  %44 = tail call ptr @parse_cond(ptr noundef nonnull %0) #5
  %45 = icmp eq ptr %44, null
  br i1 %45, label %.critedge2, label %46

46:                                               ; preds = %.critedge69
  %47 = getelementptr inbounds i8, ptr %44, i64 16
  %48 = load i16, ptr %47, align 8
  %49 = and i16 %48, 255
  %.not63 = icmp eq i16 %49, 0
  br i1 %.not63, label %51, label %.split

.split:                                           ; preds = %46
  %50 = ptrtoint ptr %44 to i64
  br label %.critedge2

51:                                               ; preds = %46
  %52 = load ptr, ptr @poisoned_ast, align 8
  br label %85

.critedge2:                                       ; preds = %.critedge69, %.split
  %.sink = phi i64 [ %50, %.split ], [ 0, %.critedge69 ]
  %.sink79 = load ptr, ptr @expr_arena, align 8
  %53 = ptrtoint ptr %.sink79 to i64
  %54 = sub i64 %.sink, %53
  %phi.call.in = sdiv exact i64 %54, 56
  %phi.call = trunc i64 %phi.call.in to i32
  %55 = getelementptr inbounds i8, ptr %4, i64 24
  store i32 %phi.call, ptr %55, align 8
  %56 = load i32, ptr %6, align 8
  %57 = icmp eq i32 %56, 26
  br i1 %57, label %.critedge71, label %58

58:                                               ; preds = %.critedge2
  %59 = tail call ptr @token_type_to_string(i32 noundef 26) #5
  %60 = load i64, ptr %2, align 8
  tail call void (i64, ptr, ...) @sema_error_at(i64 %60, ptr noundef nonnull @.str.12, ptr noundef %59) #5
  %61 = load ptr, ptr @poisoned_ast, align 8
  br label %85

.critedge71:                                      ; preds = %.critedge2
  tail call void @advance(ptr noundef nonnull %0) #5
  %62 = getelementptr inbounds i8, ptr %0, i64 60
  %63 = load i32, ptr %62, align 4
  %64 = tail call ptr @parse_stmt(ptr noundef nonnull %0)
  %65 = icmp eq ptr %64, null
  br i1 %65, label %.critedge71..critedge4_crit_edge, label %66

.critedge71..critedge4_crit_edge:                 ; preds = %.critedge71
  %.pre = load i8, ptr inttoptr (i64 12 to ptr), align 4
  br label %.critedge4

66:                                               ; preds = %.critedge71
  %67 = getelementptr inbounds i8, ptr %64, i64 12
  %68 = load i8, ptr %67, align 4
  %.not64 = icmp eq i8 %68, 0
  br i1 %.not64, label %69, label %.critedge4

69:                                               ; preds = %66
  %70 = load ptr, ptr @poisoned_ast, align 8
  br label %85

.critedge4:                                       ; preds = %.critedge71..critedge4_crit_edge, %66
  %71 = phi i8 [ %.pre, %.critedge71..critedge4_crit_edge ], [ %68, %66 ]
  %.not65 = icmp eq i8 %71, 6
  br i1 %.not65, label %77, label %72

72:                                               ; preds = %.critedge4
  %73 = load i32, ptr %62, align 4
  %.not66 = icmp eq i32 %63, %73
  br i1 %.not66, label %77, label %74

74:                                               ; preds = %72
  %75 = load i64, ptr %64, align 8
  tail call void (i64, ptr, ...) @sema_error_at(i64 %75, ptr noundef nonnull @.str.20) #5
  %76 = load ptr, ptr @poisoned_ast, align 8
  br label %85

77:                                               ; preds = %72, %.critedge4
  %78 = load ptr, ptr @ast_arena, align 8
  %79 = ptrtoint ptr %64 to i64
  %80 = ptrtoint ptr %78 to i64
  %81 = sub i64 %79, %80
  %82 = sdiv exact i64 %81, 48
  %83 = trunc i64 %82 to i32
  %84 = getelementptr inbounds i8, ptr %4, i64 36
  store i32 %83, ptr %84, align 4
  br label %85

85:                                               ; preds = %77, %74, %69, %58, %51, %40, %28
  %.057 = phi ptr [ %76, %74 ], [ %4, %77 ], [ %70, %69 ], [ %61, %58 ], [ %52, %51 ], [ %43, %40 ], [ %29, %28 ]
  ret ptr %.057
}